; Function Attrs: mustprogress uwtable
define dso_local void @_ZNK9SResource11collectKeysESt8functionIFviEE(ptr noundef nonnull readonly align 8 captures(none) dereferenceable(56) %0, ptr noundef %1) unnamed_addr #7 align 2 {
  %3 = alloca i32, align 4
  %4 = getelementptr inbounds nuw i8, ptr %0, i64 20
  %5 = load i32, ptr %4, align 4, !tbaa !36
  call void @llvm.lifetime.start.p0(i64 4, ptr nonnull %3)
  store i32 %5, ptr %3, align 4, !tbaa !7
  %6 = getelementptr inbounds nuw i8, ptr %1, i64 16
  %7 = load ptr, ptr %6, align 8, !tbaa !129
  %.not.i.i = icmp eq ptr %7, null
  br i1 %.not.i.i, label %8, label %_ZNKSt8functionIFviEEclEi.exit

8:                                                ; preds = %2
  tail call void @_ZSt25__throw_bad_function_callv() #39
  unreachable

_ZNKSt8functionIFviEEclEi.exit:                   ; preds = %2
  %9 = getelementptr inbounds nuw i8, ptr %1, i64 24
  %10 = load ptr, ptr %9, align 8, !tbaa !126
  call void %10(ptr noundef nonnull align 8 dereferenceable(32) %1, ptr noundef nonnull align 4 dereferenceable(4) %3)
  call void @llvm.lifetime.end.p0(i64 4, ptr nonnull %3)
  ret void
}